	.file	"main.cpp"
	.section .rdata,"dr"
__ZStL19piecewise_construct:
	.space 1
	.section	.text$_ZNSt11char_traitsIcE7compareEPKcS2_j,"x"
	.linkonce discard
	.globl	__ZNSt11char_traitsIcE7compareEPKcS2_j
	.def	__ZNSt11char_traitsIcE7compareEPKcS2_j;	.scl	2;	.type	32;	.endef
__ZNSt11char_traitsIcE7compareEPKcS2_j:
LFB361:
	.cfi_startproc
	pushl	%ebp
	.cfi_def_cfa_offset 8
	.cfi_offset 5, -8
	movl	%esp, %ebp
	.cfi_def_cfa_register 5
	subl	$24, %esp
	cmpl	$0, 16(%ebp)
	jne	L2
	movl	$0, %eax
	jmp	L3
L2:
	movl	16(%ebp), %eax
	movl	%eax, 8(%esp)
	movl	12(%ebp), %eax
	movl	%eax, 4(%esp)
	movl	8(%ebp), %eax
	movl	%eax, (%esp)
	call	_memcmp
L3:
	leave
	.cfi_restore 5
	.cfi_def_cfa 4, 4
	ret
	.cfi_endproc
LFE361:
.lcomm __ZStL8__ioinit,1,1
	.globl	_input
	.bss
	.align 32
_input:
	.space 252
	.globl	_output
	.align 32
_output:
	.space 248
	.def	___main;	.scl	2;	.type	32;	.endef
	.section .rdata,"dr"
LC0:
	.ascii "1. Add Data\0"
LC1:
	.ascii "2. Search Data\0"
LC2:
	.ascii "3. Exit\0"
LC3:
	.ascii "Enter the option:\0"
LC4:
	.ascii "cls\0"
LC5:
	.ascii "pause>0\0"
	.text
	.globl	_main
	.def	_main;	.scl	2;	.type	32;	.endef
_main:
LFB1566:
	.cfi_startproc
	leal	4(%esp), %ecx
	.cfi_def_cfa 1, 0
	andl	$-16, %esp
	pushl	-4(%ecx)
	pushl	%ebp
	.cfi_escape 0x10,0x5,0x2,0x75,0
	movl	%esp, %ebp
	pushl	%ecx
	.cfi_escape 0xf,0x3,0x75,0x7c,0x6
	subl	$36, %esp
	call	___main
	movl	$LC0, 4(%esp)
	movl	$__ZSt4cout, (%esp)
	call	__ZStlsISt11char_traitsIcEERSt13basic_ostreamIcT_ES5_PKc
	movl	$__ZSt4endlIcSt11char_traitsIcEERSt13basic_ostreamIT_T0_ES6_, (%esp)
	movl	%eax, %ecx
	call	__ZNSolsEPFRSoS_E
	subl	$4, %esp
	movl	$LC1, 4(%esp)
	movl	$__ZSt4cout, (%esp)
	call	__ZStlsISt11char_traitsIcEERSt13basic_ostreamIcT_ES5_PKc
	movl	$__ZSt4endlIcSt11char_traitsIcEERSt13basic_ostreamIT_T0_ES6_, (%esp)
	movl	%eax, %ecx
	call	__ZNSolsEPFRSoS_E
	subl	$4, %esp
	movl	$LC2, 4(%esp)
	movl	$__ZSt4cout, (%esp)
	call	__ZStlsISt11char_traitsIcEERSt13basic_ostreamIcT_ES5_PKc
	movl	$__ZSt4endlIcSt11char_traitsIcEERSt13basic_ostreamIT_T0_ES6_, (%esp)
	movl	%eax, %ecx
	call	__ZNSolsEPFRSoS_E
	subl	$4, %esp
	movl	$__ZSt4endlIcSt11char_traitsIcEERSt13basic_ostreamIT_T0_ES6_, (%esp)
	movl	%eax, %ecx
	call	__ZNSolsEPFRSoS_E
	subl	$4, %esp
	movl	$LC3, 4(%esp)
	movl	$__ZSt4cout, (%esp)
	call	__ZStlsISt11char_traitsIcEERSt13basic_ostreamIcT_ES5_PKc
	leal	-12(%ebp), %eax
	movl	%eax, (%esp)
	movl	$__ZSt3cin, %ecx
	call	__ZNSirsERi
	subl	$4, %esp
	movl	$__ZSt4endlIcSt11char_traitsIcEERSt13basic_ostreamIT_T0_ES6_, (%esp)
	movl	$__ZSt4cout, %ecx
	call	__ZNSolsEPFRSoS_E
	subl	$4, %esp
	movl	$LC4, (%esp)
	call	_system
	movl	-12(%ebp), %eax
	cmpl	$1, %eax
	jne	L5
	call	__Z8add_datav
	jmp	L6
L5:
	movl	-12(%ebp), %eax
	cmpl	$2, %eax
	jne	L7
	call	__Z11search_datav
	jmp	L6
L7:
	movl	$0, (%esp)
	call	_exit
L6:
	movl	$LC4, (%esp)
	call	_system
	movl	$LC5, (%esp)
	call	_system
	call	_main
	movl	$0, %eax
	movl	-4(%ebp), %ecx
	.cfi_def_cfa 1, 0
	leave
	.cfi_restore 5
	leal	-4(%ecx), %esp
	.cfi_def_cfa 4, 4
	ret
	.cfi_endproc
LFE1566:
	.section .rdata,"dr"
LC6:
	.ascii "student.txt\0"
LC7:
	.ascii "Enter student's sr.no:\0"
LC8:
	.ascii "\11\0"
LC9:
	.ascii "Enter student's name:\0"
LC10:
	.ascii " \11\0"
LC11:
	.ascii "Enter student's rol.no:\0"
LC12:
	.ascii "Enter student's contact no.:\0"
LC13:
	.ascii "\12\0"
	.text
	.globl	__Z8add_datav
	.def	__Z8add_datav;	.scl	2;	.type	32;	.endef
__Z8add_datav:
LFB1567:
	.cfi_startproc
	.cfi_personality 0,___gxx_personality_v0
	.cfi_lsda 0,LLSDA1567
	pushl	%ebp
	.cfi_def_cfa_offset 8
	.cfi_offset 5, -8
	movl	%esp, %ebp
	.cfi_def_cfa_register 5
	pushl	%ebx
	subl	$52, %esp
	.cfi_offset 3, -12
	leal	-32(%ebp), %eax
	movl	%eax, %ecx
	call	__ZNSt7__cxx1112basic_stringIcSt11char_traitsIcESaIcEEC1Ev
	movl	$1, 4(%esp)
	movl	$LC6, (%esp)
	movl	$_output, %ecx
LEHB0:
	call	__ZNSt14basic_ofstreamIcSt11char_traitsIcEE4openEPKcSt13_Ios_Openmode
	subl	$8, %esp
	movl	$LC7, 4(%esp)
	movl	$__ZSt4cout, (%esp)
	call	__ZStlsISt11char_traitsIcEERSt13basic_ostreamIcT_ES5_PKc
	leal	-32(%ebp), %eax
	movl	%eax, 4(%esp)
	movl	$__ZSt3cin, (%esp)
	call	__ZStrsIcSt11char_traitsIcESaIcEERSt13basic_istreamIT_T0_ES7_RNSt7__cxx1112basic_stringIS4_S5_T1_EE
	leal	-32(%ebp), %eax
	movl	%eax, 4(%esp)
	movl	$_output, (%esp)
	call	__ZStlsIcSt11char_traitsIcESaIcEERSt13basic_ostreamIT_T0_ES7_RKNSt7__cxx1112basic_stringIS4_S5_T1_EE
	movl	$LC8, 4(%esp)
	movl	%eax, (%esp)
	call	__ZStlsISt11char_traitsIcEERSt13basic_ostreamIcT_ES5_PKc
	movl	$LC9, 4(%esp)
	movl	$__ZSt4cout, (%esp)
	call	__ZStlsISt11char_traitsIcEERSt13basic_ostreamIcT_ES5_PKc
	leal	-32(%ebp), %eax
	movl	%eax, 4(%esp)
	movl	$__ZSt3cin, (%esp)
	call	__ZStrsIcSt11char_traitsIcESaIcEERSt13basic_istreamIT_T0_ES7_RNSt7__cxx1112basic_stringIS4_S5_T1_EE
	leal	-32(%ebp), %eax
	movl	%eax, 4(%esp)
	movl	$_output, (%esp)
	call	__ZStlsIcSt11char_traitsIcESaIcEERSt13basic_ostreamIT_T0_ES7_RKNSt7__cxx1112basic_stringIS4_S5_T1_EE
	movl	$LC10, 4(%esp)
	movl	%eax, (%esp)
	call	__ZStlsISt11char_traitsIcEERSt13basic_ostreamIcT_ES5_PKc
	movl	$LC11, 4(%esp)
	movl	$__ZSt4cout, (%esp)
	call	__ZStlsISt11char_traitsIcEERSt13basic_ostreamIcT_ES5_PKc
	leal	-32(%ebp), %eax
	movl	%eax, 4(%esp)
	movl	$__ZSt3cin, (%esp)
	call	__ZStrsIcSt11char_traitsIcESaIcEERSt13basic_istreamIT_T0_ES7_RNSt7__cxx1112basic_stringIS4_S5_T1_EE
	leal	-32(%ebp), %eax
	movl	%eax, 4(%esp)
	movl	$_output, (%esp)
	call	__ZStlsIcSt11char_traitsIcESaIcEERSt13basic_ostreamIT_T0_ES7_RKNSt7__cxx1112basic_stringIS4_S5_T1_EE
	movl	$LC8, 4(%esp)
	movl	%eax, (%esp)
	call	__ZStlsISt11char_traitsIcEERSt13basic_ostreamIcT_ES5_PKc
	movl	$LC12, 4(%esp)
	movl	$__ZSt4cout, (%esp)
	call	__ZStlsISt11char_traitsIcEERSt13basic_ostreamIcT_ES5_PKc
	leal	-32(%ebp), %eax
	movl	%eax, 4(%esp)
	movl	$__ZSt3cin, (%esp)
	call	__ZStrsIcSt11char_traitsIcESaIcEERSt13basic_istreamIT_T0_ES7_RNSt7__cxx1112basic_stringIS4_S5_T1_EE
	leal	-32(%ebp), %eax
	movl	%eax, 4(%esp)
	movl	$_output, (%esp)
	call	__ZStlsIcSt11char_traitsIcESaIcEERSt13basic_ostreamIT_T0_ES7_RKNSt7__cxx1112basic_stringIS4_S5_T1_EE
	movl	$LC13, 4(%esp)
	movl	%eax, (%esp)
	call	__ZStlsISt11char_traitsIcEERSt13basic_ostreamIcT_ES5_PKc
	movl	$_output, %ecx
	call	__ZNSt14basic_ofstreamIcSt11char_traitsIcEE5closeEv
LEHE0:
	leal	-32(%ebp), %eax
	movl	%eax, %ecx
	call	__ZNSt7__cxx1112basic_stringIcSt11char_traitsIcESaIcEED1Ev
	jmp	L12
L11:
	movl	%eax, %ebx
	leal	-32(%ebp), %eax
	movl	%eax, %ecx
	call	__ZNSt7__cxx1112basic_stringIcSt11char_traitsIcESaIcEED1Ev
	movl	%ebx, %eax
	movl	%eax, (%esp)
LEHB1:
	call	__Unwind_Resume
LEHE1:
L12:
	movl	-4(%ebp), %ebx
	leave
	.cfi_restore 5
	.cfi_restore 3
	.cfi_def_cfa 4, 4
	ret
	.cfi_endproc
LFE1567:
	.def	___gxx_personality_v0;	.scl	2;	.type	32;	.endef
	.section	.gcc_except_table,"w"
LLSDA1567:
	.byte	0xff
	.byte	0xff
	.byte	0x1
	.uleb128 LLSDACSE1567-LLSDACSB1567
LLSDACSB1567:
	.uleb128 LEHB0-LFB1567
	.uleb128 LEHE0-LEHB0
	.uleb128 L11-LFB1567
	.uleb128 0
	.uleb128 LEHB1-LFB1567
	.uleb128 LEHE1-LEHB1
	.uleb128 0
	.uleb128 0
LLSDACSE1567:
	.text
	.section .rdata,"dr"
LC14:
	.ascii "Enter sr.no: \0"
LC15:
	.ascii "sr.no:\0"
LC16:
	.ascii "Name:\0"
LC17:
	.ascii "Rol.no:\0"
LC18:
	.ascii "contact.no:\0"
	.text
	.globl	__Z11search_datav
	.def	__Z11search_datav;	.scl	2;	.type	32;	.endef
__Z11search_datav:
LFB1568:
	.cfi_startproc
	.cfi_personality 0,___gxx_personality_v0
	.cfi_lsda 0,LLSDA1568
	pushl	%ebp
	.cfi_def_cfa_offset 8
	.cfi_offset 5, -8
	movl	%esp, %ebp
	.cfi_def_cfa_register 5
	pushl	%ebx
	subl	$68, %esp
	.cfi_offset 3, -12
	leal	-32(%ebp), %eax
	movl	%eax, %ecx
	call	__ZNSt7__cxx1112basic_stringIcSt11char_traitsIcESaIcEEC1Ev
	leal	-56(%ebp), %eax
	movl	%eax, %ecx
	call	__ZNSt7__cxx1112basic_stringIcSt11char_traitsIcESaIcEEC1Ev
	movl	$LC14, 4(%esp)
	movl	$__ZSt4cout, (%esp)
LEHB2:
	call	__ZStlsISt11char_traitsIcEERSt13basic_ostreamIcT_ES5_PKc
	leal	-56(%ebp), %eax
	movl	%eax, 4(%esp)
	movl	$__ZSt3cin, (%esp)
	call	__ZStrsIcSt11char_traitsIcESaIcEERSt13basic_istreamIT_T0_ES7_RNSt7__cxx1112basic_stringIS4_S5_T1_EE
	movl	$1, 4(%esp)
	movl	$LC6, (%esp)
	movl	$_input, %ecx
	call	__ZNSt14basic_ifstreamIcSt11char_traitsIcEE4openEPKcSt13_Ios_Openmode
	subl	$8, %esp
L16:
	leal	-32(%ebp), %eax
	movl	%eax, 4(%esp)
	movl	$_input, (%esp)
	call	__ZStrsIcSt11char_traitsIcESaIcEERSt13basic_istreamIT_T0_ES7_RNSt7__cxx1112basic_stringIS4_S5_T1_EE
	movl	(%eax), %edx
	subl	$12, %edx
	movl	(%edx), %edx
	addl	%edx, %eax
	movl	%eax, %ecx
	call	__ZNKSt9basic_iosIcSt11char_traitsIcEEcvbEv
	testb	%al, %al
	je	L14
	leal	-56(%ebp), %eax
	movl	%eax, 4(%esp)
	leal	-32(%ebp), %eax
	movl	%eax, (%esp)
	call	__ZSteqIcEN9__gnu_cxx11__enable_ifIXsrSt9__is_charIT_E7__valueEbE6__typeERKNSt7__cxx1112basic_stringIS3_St11char_traitsIS3_ESaIS3_EEESE_
	testb	%al, %al
	je	L16
	movl	$LC15, 4(%esp)
	movl	$__ZSt4cout, (%esp)
	call	__ZStlsISt11char_traitsIcEERSt13basic_ostreamIcT_ES5_PKc
	movl	%eax, %edx
	leal	-32(%ebp), %eax
	movl	%eax, 4(%esp)
	movl	%edx, (%esp)
	call	__ZStlsIcSt11char_traitsIcESaIcEERSt13basic_ostreamIT_T0_ES7_RKNSt7__cxx1112basic_stringIS4_S5_T1_EE
	movl	$__ZSt4endlIcSt11char_traitsIcEERSt13basic_ostreamIT_T0_ES6_, (%esp)
	movl	%eax, %ecx
	call	__ZNSolsEPFRSoS_E
	subl	$4, %esp
	leal	-32(%ebp), %eax
	movl	%eax, 4(%esp)
	movl	$_input, (%esp)
	call	__ZStrsIcSt11char_traitsIcESaIcEERSt13basic_istreamIT_T0_ES7_RNSt7__cxx1112basic_stringIS4_S5_T1_EE
	movl	$LC16, 4(%esp)
	movl	$__ZSt4cout, (%esp)
	call	__ZStlsISt11char_traitsIcEERSt13basic_ostreamIcT_ES5_PKc
	movl	%eax, %edx
	leal	-32(%ebp), %eax
	movl	%eax, 4(%esp)
	movl	%edx, (%esp)
	call	__ZStlsIcSt11char_traitsIcESaIcEERSt13basic_ostreamIT_T0_ES7_RKNSt7__cxx1112basic_stringIS4_S5_T1_EE
	movl	$__ZSt4endlIcSt11char_traitsIcEERSt13basic_ostreamIT_T0_ES6_, (%esp)
	movl	%eax, %ecx
	call	__ZNSolsEPFRSoS_E
	subl	$4, %esp
	leal	-32(%ebp), %eax
	movl	%eax, 4(%esp)
	movl	$_input, (%esp)
	call	__ZStrsIcSt11char_traitsIcESaIcEERSt13basic_istreamIT_T0_ES7_RNSt7__cxx1112basic_stringIS4_S5_T1_EE
	movl	$LC17, 4(%esp)
	movl	$__ZSt4cout, (%esp)
	call	__ZStlsISt11char_traitsIcEERSt13basic_ostreamIcT_ES5_PKc
	movl	%eax, %edx
	leal	-32(%ebp), %eax
	movl	%eax, 4(%esp)
	movl	%edx, (%esp)
	call	__ZStlsIcSt11char_traitsIcESaIcEERSt13basic_ostreamIT_T0_ES7_RKNSt7__cxx1112basic_stringIS4_S5_T1_EE
	movl	$__ZSt4endlIcSt11char_traitsIcEERSt13basic_ostreamIT_T0_ES6_, (%esp)
	movl	%eax, %ecx
	call	__ZNSolsEPFRSoS_E
	subl	$4, %esp
	leal	-32(%ebp), %eax
	movl	%eax, 4(%esp)
	movl	$_input, (%esp)
	call	__ZStrsIcSt11char_traitsIcESaIcEERSt13basic_istreamIT_T0_ES7_RNSt7__cxx1112basic_stringIS4_S5_T1_EE
	movl	$LC18, 4(%esp)
	movl	$__ZSt4cout, (%esp)
	call	__ZStlsISt11char_traitsIcEERSt13basic_ostreamIcT_ES5_PKc
	movl	%eax, %edx
	leal	-32(%ebp), %eax
	movl	%eax, 4(%esp)
	movl	%edx, (%esp)
	call	__ZStlsIcSt11char_traitsIcESaIcEERSt13basic_ostreamIT_T0_ES7_RKNSt7__cxx1112basic_stringIS4_S5_T1_EE
	movl	$__ZSt4endlIcSt11char_traitsIcEERSt13basic_ostreamIT_T0_ES6_, (%esp)
	movl	%eax, %ecx
	call	__ZNSolsEPFRSoS_E
	subl	$4, %esp
	leal	-32(%ebp), %eax
	movl	%eax, 4(%esp)
	movl	$_input, (%esp)
	call	__ZStrsIcSt11char_traitsIcESaIcEERSt13basic_istreamIT_T0_ES7_RNSt7__cxx1112basic_stringIS4_S5_T1_EE
	movl	$LC5, (%esp)
	call	_system
	jmp	L16
L14:
	movl	$_input, %ecx
	call	__ZNSt14basic_ifstreamIcSt11char_traitsIcEE5closeEv
LEHE2:
	leal	-56(%ebp), %eax
	movl	%eax, %ecx
	call	__ZNSt7__cxx1112basic_stringIcSt11char_traitsIcESaIcEED1Ev
	leal	-32(%ebp), %eax
	movl	%eax, %ecx
	call	__ZNSt7__cxx1112basic_stringIcSt11char_traitsIcESaIcEED1Ev
	jmp	L19
L18:
	movl	%eax, %ebx
	leal	-56(%ebp), %eax
	movl	%eax, %ecx
	call	__ZNSt7__cxx1112basic_stringIcSt11char_traitsIcESaIcEED1Ev
	leal	-32(%ebp), %eax
	movl	%eax, %ecx
	call	__ZNSt7__cxx1112basic_stringIcSt11char_traitsIcESaIcEED1Ev
	movl	%ebx, %eax
	movl	%eax, (%esp)
LEHB3:
	call	__Unwind_Resume
LEHE3:
L19:
	movl	-4(%ebp), %ebx
	leave
	.cfi_restore 5
	.cfi_restore 3
	.cfi_def_cfa 4, 4
	ret
	.cfi_endproc
LFE1568:
	.section	.gcc_except_table,"w"
LLSDA1568:
	.byte	0xff
	.byte	0xff
	.byte	0x1
	.uleb128 LLSDACSE1568-LLSDACSB1568
LLSDACSB1568:
	.uleb128 LEHB2-LFB1568
	.uleb128 LEHE2-LEHB2
	.uleb128 L18-LFB1568
	.uleb128 0
	.uleb128 LEHB3-LFB1568
	.uleb128 LEHE3-LEHB3
	.uleb128 0
	.uleb128 0
LLSDACSE1568:
	.text
	.globl	__Z11delete_datav
	.def	__Z11delete_datav;	.scl	2;	.type	32;	.endef
__Z11delete_datav:
LFB1569:
	.cfi_startproc
	pushl	%ebp
	.cfi_def_cfa_offset 8
	.cfi_offset 5, -8
	movl	%esp, %ebp
	.cfi_def_cfa_register 5
	nop
	popl	%ebp
	.cfi_restore 5
	.cfi_def_cfa 4, 4
	ret
	.cfi_endproc
LFE1569:
	.section	.text$_ZSteqIcEN9__gnu_cxx11__enable_ifIXsrSt9__is_charIT_E7__valueEbE6__typeERKNSt7__cxx1112basic_stringIS3_St11char_traitsIS3_ESaIS3_EEESE_,"x"
	.linkonce discard
	.globl	__ZSteqIcEN9__gnu_cxx11__enable_ifIXsrSt9__is_charIT_E7__valueEbE6__typeERKNSt7__cxx1112basic_stringIS3_St11char_traitsIS3_ESaIS3_EEESE_
	.def	__ZSteqIcEN9__gnu_cxx11__enable_ifIXsrSt9__is_charIT_E7__valueEbE6__typeERKNSt7__cxx1112basic_stringIS3_St11char_traitsIS3_ESaIS3_EEESE_;	.scl	2;	.type	32;	.endef
__ZSteqIcEN9__gnu_cxx11__enable_ifIXsrSt9__is_charIT_E7__valueEbE6__typeERKNSt7__cxx1112basic_stringIS3_St11char_traitsIS3_ESaIS3_EEESE_:
LFB1815:
	.cfi_startproc
	pushl	%ebp
	.cfi_def_cfa_offset 8
	.cfi_offset 5, -8
	movl	%esp, %ebp
	.cfi_def_cfa_register 5
	pushl	%esi
	pushl	%ebx
	subl	$16, %esp
	.cfi_offset 6, -12
	.cfi_offset 3, -16
	movl	8(%ebp), %ecx
	call	__ZNKSt7__cxx1112basic_stringIcSt11char_traitsIcESaIcEE4sizeEv
	movl	%eax, %ebx
	movl	12(%ebp), %eax
	movl	%eax, %ecx
	call	__ZNKSt7__cxx1112basic_stringIcSt11char_traitsIcESaIcEE4sizeEv
	cmpl	%eax, %ebx
	jne	L22
	movl	8(%ebp), %ecx
	call	__ZNKSt7__cxx1112basic_stringIcSt11char_traitsIcESaIcEE4sizeEv
	movl	%eax, %esi
	movl	12(%ebp), %eax
	movl	%eax, %ecx
	call	__ZNKSt7__cxx1112basic_stringIcSt11char_traitsIcESaIcEE4dataEv
	movl	%eax, %ebx
	movl	8(%ebp), %ecx
	call	__ZNKSt7__cxx1112basic_stringIcSt11char_traitsIcESaIcEE4dataEv
	movl	%esi, 8(%esp)
	movl	%ebx, 4(%esp)
	movl	%eax, (%esp)
	call	__ZNSt11char_traitsIcE7compareEPKcS2_j
	testl	%eax, %eax
	jne	L22
	movl	$1, %eax
	jmp	L23
L22:
	movl	$0, %eax
L23:
	addl	$16, %esp
	popl	%ebx
	.cfi_restore 3
	popl	%esi
	.cfi_restore 6
	popl	%ebp
	.cfi_restore 5
	.cfi_def_cfa 4, 4
	ret
	.cfi_endproc
LFE1815:
	.text
	.def	___tcf_0;	.scl	3;	.type	32;	.endef
___tcf_0:
LFB2069:
	.cfi_startproc
	pushl	%ebp
	.cfi_def_cfa_offset 8
	.cfi_offset 5, -8
	movl	%esp, %ebp
	.cfi_def_cfa_register 5
	subl	$8, %esp
	movl	$__ZStL8__ioinit, %ecx
	call	__ZNSt8ios_base4InitD1Ev
	leave
	.cfi_restore 5
	.cfi_def_cfa 4, 4
	ret
	.cfi_endproc
LFE2069:
	.def	___tcf_1;	.scl	3;	.type	32;	.endef
___tcf_1:
LFB2070:
	.cfi_startproc
	pushl	%ebp
	.cfi_def_cfa_offset 8
	.cfi_offset 5, -8
	movl	%esp, %ebp
	.cfi_def_cfa_register 5
	subl	$8, %esp
	movl	$_input, %ecx
	call	__ZNSt14basic_ifstreamIcSt11char_traitsIcEED1Ev
	leave
	.cfi_restore 5
	.cfi_def_cfa 4, 4
	ret
	.cfi_endproc
LFE2070:
	.def	___tcf_2;	.scl	3;	.type	32;	.endef
___tcf_2:
LFB2071:
	.cfi_startproc
	pushl	%ebp
	.cfi_def_cfa_offset 8
	.cfi_offset 5, -8
	movl	%esp, %ebp
	.cfi_def_cfa_register 5
	subl	$8, %esp
	movl	$_output, %ecx
	call	__ZNSt14basic_ofstreamIcSt11char_traitsIcEED1Ev
	leave
	.cfi_restore 5
	.cfi_def_cfa 4, 4
	ret
	.cfi_endproc
LFE2071:
	.def	__Z41__static_initialization_and_destruction_0ii;	.scl	3;	.type	32;	.endef
__Z41__static_initialization_and_destruction_0ii:
LFB2068:
	.cfi_startproc
	pushl	%ebp
	.cfi_def_cfa_offset 8
	.cfi_offset 5, -8
	movl	%esp, %ebp
	.cfi_def_cfa_register 5
	subl	$24, %esp
	cmpl	$1, 8(%ebp)
	jne	L30
	cmpl	$65535, 12(%ebp)
	jne	L30
	movl	$__ZStL8__ioinit, %ecx
	call	__ZNSt8ios_base4InitC1Ev
	movl	$___tcf_0, (%esp)
	call	_atexit
	movl	$_input, %ecx
	call	__ZNSt14basic_ifstreamIcSt11char_traitsIcEEC1Ev
	movl	$___tcf_1, (%esp)
	call	_atexit
	movl	$_output, %ecx
	call	__ZNSt14basic_ofstreamIcSt11char_traitsIcEEC1Ev
	movl	$___tcf_2, (%esp)
	call	_atexit
L30:
	nop
	leave
	.cfi_restore 5
	.cfi_def_cfa 4, 4
	ret
	.cfi_endproc
LFE2068:
	.def	__GLOBAL__sub_I_input;	.scl	3;	.type	32;	.endef
__GLOBAL__sub_I_input:
LFB2080:
	.cfi_startproc
	pushl	%ebp
	.cfi_def_cfa_offset 8
	.cfi_offset 5, -8
	movl	%esp, %ebp
	.cfi_def_cfa_register 5
	subl	$24, %esp
	movl	$65535, 4(%esp)
	movl	$1, (%esp)
	call	__Z41__static_initialization_and_destruction_0ii
	leave
	.cfi_restore 5
	.cfi_def_cfa 4, 4
	ret
	.cfi_endproc
LFE2080:
	.section	.ctors,"w"
	.align 4
	.long	__GLOBAL__sub_I_input
	.ident	"GCC: (MinGW.org GCC-6.3.0-1) 6.3.0"
	.def	_memcmp;	.scl	2;	.type	32;	.endef
	.def	__ZStlsISt11char_traitsIcEERSt13basic_ostreamIcT_ES5_PKc;	.scl	2;	.type	32;	.endef
	.def	__ZSt4endlIcSt11char_traitsIcEERSt13basic_ostreamIT_T0_ES6_;	.scl	2;	.type	32;	.endef
	.def	__ZNSolsEPFRSoS_E;	.scl	2;	.type	32;	.endef
	.def	__ZNSirsERi;	.scl	2;	.type	32;	.endef
	.def	_system;	.scl	2;	.type	32;	.endef
	.def	_exit;	.scl	2;	.type	32;	.endef
	.def	__ZNSt7__cxx1112basic_stringIcSt11char_traitsIcESaIcEEC1Ev;	.scl	2;	.type	32;	.endef
	.def	__ZNSt14basic_ofstreamIcSt11char_traitsIcEE4openEPKcSt13_Ios_Openmode;	.scl	2;	.type	32;	.endef
	.def	__ZStrsIcSt11char_traitsIcESaIcEERSt13basic_istreamIT_T0_ES7_RNSt7__cxx1112basic_stringIS4_S5_T1_EE;	.scl	2;	.type	32;	.endef
	.def	__ZStlsIcSt11char_traitsIcESaIcEERSt13basic_ostreamIT_T0_ES7_RKNSt7__cxx1112basic_stringIS4_S5_T1_EE;	.scl	2;	.type	32;	.endef
	.def	__ZNSt14basic_ofstreamIcSt11char_traitsIcEE5closeEv;	.scl	2;	.type	32;	.endef
	.def	__ZNSt7__cxx1112basic_stringIcSt11char_traitsIcESaIcEED1Ev;	.scl	2;	.type	32;	.endef
	.def	__Unwind_Resume;	.scl	2;	.type	32;	.endef
	.def	__ZNSt14basic_ifstreamIcSt11char_traitsIcEE4openEPKcSt13_Ios_Openmode;	.scl	2;	.type	32;	.endef
	.def	__ZNKSt9basic_iosIcSt11char_traitsIcEEcvbEv;	.scl	2;	.type	32;	.endef
	.def	__ZNSt14basic_ifstreamIcSt11char_traitsIcEE5closeEv;	.scl	2;	.type	32;	.endef
	.def	__ZNKSt7__cxx1112basic_stringIcSt11char_traitsIcESaIcEE4sizeEv;	.scl	2;	.type	32;	.endef
	.def	__ZNKSt7__cxx1112basic_stringIcSt11char_traitsIcESaIcEE4dataEv;	.scl	2;	.type	32;	.endef
	.def	__ZNSt8ios_base4InitD1Ev;	.scl	2;	.type	32;	.endef
	.def	__ZNSt14basic_ifstreamIcSt11char_traitsIcEED1Ev;	.scl	2;	.type	32;	.endef
	.def	__ZNSt14basic_ofstreamIcSt11char_traitsIcEED1Ev;	.scl	2;	.type	32;	.endef
	.def	__ZNSt8ios_base4InitC1Ev;	.scl	2;	.type	32;	.endef
	.def	_atexit;	.scl	2;	.type	32;	.endef
	.def	__ZNSt14basic_ifstreamIcSt11char_traitsIcEEC1Ev;	.scl	2;	.type	32;	.endef
	.def	__ZNSt14basic_ofstreamIcSt11char_traitsIcEEC1Ev;	.scl	2;	.type	32;	.endef
